target datalayout = "e-m:e-p270:32:32-p271:32:32-p272:64:64-i64:64-i128:128-f80:128-n8:16:32:64-S128"
target triple = "x86_64-pc-linux-gnu"

%struct.SResource = type { ptr, i8, i8, i32, i32, i32, i32, i32, ptr, %struct.UString }
%struct.UString = type { ptr, i32, i32 }
%class.ContainerResource = type { %struct.SResource, i32, ptr }

; Function Attrs: mustprogress nounwind uwtable
define dso_local void @_ZN9SResourceD2Ev(ptr noundef nonnull align 8 dereferenceable(56) %0) unnamed_addr #4 align 2 personality ptr @__gxx_personality_v0 {
  %2 = alloca ptr, align 8
  store ptr %0, ptr %2, align 8, !tbaa !24
  %3 = load ptr, ptr %2, align 8
  store ptr getelementptr inbounds inrange(-16, 64) ({ [10 x ptr] }, ptr @_ZTV9SResource, i32 0, i32 0, i32 2), ptr %3, align 8, !tbaa !26
  %4 = getelementptr inbounds nuw %struct.SResource, ptr %3, i32 0, i32 9
  invoke void @ustr_deinit(ptr noundef %4)
          to label %5 unwind label %6

5:                                                ; preds = %1
  ret void

6:                                                ; preds = %1
  %7 = landingpad { ptr, i32 }
          catch ptr null
  %8 = extractvalue { ptr, i32 } %7, 0
  call void @__clang_call_terminate(ptr %8) #21
  unreachable
}

; Function Attrs: mustprogress nounwind uwtable
define dso_local void @_ZN17ContainerResourceD2Ev(ptr noundef nonnull align 8 dereferenceable(72) %0) unnamed_addr #4 align 2 {
  %2 = alloca ptr, align 8
  %3 = alloca ptr, align 8
  %4 = alloca ptr, align 8
  store ptr %0, ptr %2, align 8, !tbaa !53
  %5 = load ptr, ptr %2, align 8
  store ptr getelementptr inbounds inrange(-16, 64) ({ [10 x ptr] }, ptr @_ZTV17ContainerResource, i32 0, i32 0, i32 2), ptr %5, align 8, !tbaa !26
  call void @llvm.lifetime.start.p0(i64 8, ptr %3) #3
  %6 = getelementptr inbounds nuw %class.ContainerResource, ptr %5, i32 0, i32 2
  %7 = load ptr, ptr %6, align 8, !tbaa !55
  store ptr %7, ptr %3, align 8, !tbaa !24
  br label %8

8:                                                ; preds = %21, %1
  %9 = load ptr, ptr %3, align 8, !tbaa !24
  %10 = icmp ne ptr %9, null
  br i1 %10, label %11, label %23

11:                                               ; preds = %8
  call void @llvm.lifetime.start.p0(i64 8, ptr %4) #3
  %12 = load ptr, ptr %3, align 8, !tbaa !24
  %13 = getelementptr inbounds nuw %struct.SResource, ptr %12, i32 0, i32 8
  %14 = load ptr, ptr %13, align 8, !tbaa !38
  store ptr %14, ptr %4, align 8, !tbaa !24
  %15 = load ptr, ptr %3, align 8, !tbaa !24
  %16 = icmp eq ptr %15, null
  br i1 %16, label %21, label %17

17:                                               ; preds = %11
  %18 = load ptr, ptr %15, align 8, !tbaa !26
  %19 = getelementptr inbounds ptr, ptr %18, i64 1
  %20 = load ptr, ptr %19, align 8
  call void %20(ptr noundef nonnull align 8 dereferenceable(56) %15) #3
  br label %21

21:                                               ; preds = %17, %11
  %22 = load ptr, ptr %4, align 8, !tbaa !24
  store ptr %22, ptr %3, align 8, !tbaa !24
  call void @llvm.lifetime.end.p0(i64 8, ptr %4) #3
  br label %8, !llvm.loop !57

23:                                               ; preds = %8
  call void @llvm.lifetime.end.p0(i64 8, ptr %3) #3
  call void @_ZN9SResourceD2Ev(ptr noundef nonnull align 8 dereferenceable(56) %5) #3
  ret void
}